Certificate:
    Data:
        Version: 3 (0x2)
        Serial Number:
            4c:04:b1:61:49:1e:e8:b9:2f:e2:28:65:e4:7c:31:9b
        Signature Algorithm: sha256WithRSAEncryption
        Issuer: CN=main_server.local
        Validity
            Not Before: May 18 14:48:16 2024 GMT
            Not After : Aug 21 14:48:16 2026 GMT
        Subject: CN=remote
        Subject Public Key Info:
            Public Key Algorithm: rsaEncryption
                Public-Key: (2048 bit)
                Modulus:
                    00:e1:44:d2:3a:af:1d:15:5b:18:a8:2a:a0:b2:0c:
                    16:ac:2a:52:17:50:7d:7b:61:97:60:0f:64:14:d2:
                    31:9c:9c:64:0e:d2:4f:2a:f2:fe:cf:c5:f7:e8:2b:
                    c4:c4:71:2a:d2:57:61:f2:dc:64:5e:37:7b:b3:b7:
                    8d:7f:89:df:1b:29:c2:12:7b:06:61:ef:d5:56:ce:
                    02:07:26:26:7f:9d:e1:19:8b:ab:02:fc:f8:6c:ea:
                    61:e2:cc:ce:95:f7:33:c7:fd:67:66:a7:29:83:50:
                    d1:a0:c6:6f:8c:eb:c8:c4:05:ec:dd:41:74:11:a3:
                    cd:66:eb:71:ca:42:d4:11:94:bb:c0:f2:cc:96:05:
                    91:ce:31:3e:8f:12:a9:4f:7c:ff:c9:11:a5:f0:97:
                    51:b1:4d:93:80:39:92:2b:76:2f:ae:5b:43:1d:2d:
                    29:53:6a:58:4c:c4:0a:8b:eb:b4:95:06:31:e9:b1:
                    8b:09:94:86:bd:fc:c1:2c:c6:8a:ba:46:33:bb:f9:
                    58:06:c1:56:b6:bf:7e:b7:8e:52:c8:dc:3f:7b:40:
                    cd:24:fc:52:41:f2:b6:66:99:ae:d0:1b:5a:d5:f7:
                    6e:32:3f:83:b0:1e:a5:be:2f:5d:a9:05:3c:df:47:
                    42:84:b0:a6:47:77:d6:df:ca:60:80:58:1b:2c:4b:
                    21:19
                Exponent: 65537 (0x10001)
        X509v3 extensions:
            X509v3 Basic Constraints: 
                CA:FALSE
            X509v3 Subject Key Identifier: 
                BC:D3:A4:E1:B2:79:CC:69:6C:81:5B:59:95:72:A1:24:E0:85:60:E1
            X509v3 Authority Key Identifier: 
                keyid:45:7C:2B:06:CA:AE:DE:2B:85:8C:FD:B9:0B:9F:2F:51:8E:62:D6:63
                DirName:/CN=main_server.local
                serial:6D:F3:DC:79:F4:48:33:36:94:47:A8:97:79:68:E8:81:D8:2C:9D:B3
            X509v3 Extended Key Usage: 
                TLS Web Client Authentication
            X509v3 Key Usage: 
                Digital Signature
    Signature Algorithm: sha256WithRSAEncryption
    Signature Value:
        b3:3c:50:cc:20:d9:d6:03:e4:ac:da:0d:cf:21:fa:5c:52:7c:
        a3:22:89:7f:c2:91:e6:05:1a:a1:27:25:0c:49:4c:3a:41:90:
        a1:93:ad:66:f5:8b:77:dd:61:8e:ba:ea:22:dc:a3:c3:13:ce:
        5a:77:15:6f:27:3d:6e:14:17:8e:09:45:92:45:8b:fd:d8:a9:
        0b:3d:e2:fb:2e:55:f4:c4:2c:39:84:e8:7a:41:18:db:d5:2e:
        23:3b:0e:16:70:86:a1:a3:21:1c:67:fd:31:83:99:33:1e:00:
        23:90:43:c6:1e:9a:d6:cb:2d:ab:bc:e6:d0:4e:02:11:17:a6:
        27:e6:71:c1:c5:9d:67:f6:d7:2f:1a:0b:1d:c6:27:98:fc:38:
        32:c9:23:2b:50:4b:df:a6:1a:2b:fc:4f:31:ce:bc:5a:78:9a:
        0f:a6:f1:6e:fe:1b:9a:3f:b5:56:2c:94:c0:4a:28:2a:57:20:
        44:44:c3:9c:0a:fa:e7:86:b1:7b:95:55:24:0a:d0:bd:d8:51:
        c9:a6:5e:e4:be:27:66:c3:64:69:ae:a2:f2:69:52:06:aa:1f:
        25:9d:9b:4b:5f:a5:3d:4c:aa:b9:92:02:7b:94:34:67:77:b8:
        2e:b8:27:52:15:1c:40:31:98:0f:9a:eb:c4:9b:95:dd:1f:47:
        de:dc:18:c2
-----BEGIN CERTIFICATE-----
MIIDYDCCAkigAwIBAgIQTASxYUke6Lkv4ihl5HwxmzANBgkqhkiG9w0BAQsFADAc
MRowGAYDVQQDDBFtYWluX3NlcnZlci5sb2NhbDAeFw0yNDA1MTgxNDQ4MTZaFw0y
NjA4MjExNDQ4MTZaMBExDzANBgNVBAMMBnJlbW90ZTCCASIwDQYJKoZIhvcNAQEB
BQADggEPADCCAQoCggEBAOFE0jqvHRVbGKgqoLIMFqwqUhdQfXthl2APZBTSMZyc
ZA7STyry/s/F9+grxMRxKtJXYfLcZF43e7O3jX+J3xspwhJ7BmHv1VbOAgcmJn+d
4RmLqwL8+GzqYeLMzpX3M8f9Z2anKYNQ0aDGb4zryMQF7N1BdBGjzWbrccpC1BGU
u8DyzJYFkc4xPo8SqU98/8kRpfCXUbFNk4A5kit2L65bQx0tKVNqWEzECovrtJUG
MemxiwmUhr38wSzGirpGM7v5WAbBVra/freOUsjcP3tAzST8UkHytmaZrtAbWtX3
bjI/g7Aepb4vXakFPN9HQoSwpkd31t/KYIBYGyxLIRkCAwEAAaOBqDCBpTAJBgNV
HRMEAjAAMB0GA1UdDgQWBBS806ThsnnMaWyBW1mVcqEk4IVg4TBXBgNVHSMEUDBO
gBRFfCsGyq7eK4WM/bkLny9RjmLWY6EgpB4wHDEaMBgGA1UEAwwRbWFpbl9zZXJ2
ZXIubG9jYWyCFG3z3Hn0SDM2lEeol3lo6IHYLJ2zMBMGA1UdJQQMMAoGCCsGAQUF
BwMCMAsGA1UdDwQEAwIHgDANBgkqhkiG9w0BAQsFAAOCAQEAszxQzCDZ1gPkrNoN
zyH6XFJ8oyKJf8KR5gUaoSclDElMOkGQoZOtZvWLd91hjrrqItyjwxPOWncVbyc9
bhQXjglFkkWL/dipCz3i+y5V9MQsOYToekEY29UuIzsOFnCGoaMhHGf9MYOZMx4A
I5BDxh6a1sstq7zm0E4CERemJ+ZxwcWdZ/bXLxoLHcYnmPw4MskjK1BL36YaK/xP
Mc68WniaD6bxbv4bmj+1ViyUwEooKlcgRETDnAr654axe5VVJArQvdhRyaZe5L4n
ZsNkaa6i8mlSBqofJZ2bS1+lPUyquZICe5Q0Z3e4LrgnUhUcQDGYD5rrxJuV3R9H
3twYwg==
-----END CERTIFICATE-----
