Certificate:
    Data:
        Version: 3 (0x2)
        Serial Number:
            02:41:ce:6e:ed:00:72:ea:58:8e:4f:4c:fd:f0:b5:f8
        Signature Algorithm: sha256WithRSAEncryption
        Issuer: CN=main_server.local
        Validity
            Not Before: May 18 14:48:21 2024 GMT
            Not After : Aug 21 14:48:21 2026 GMT
        Subject: CN=host
        Subject Public Key Info:
            Public Key Algorithm: rsaEncryption
                Public-Key: (2048 bit)
                Modulus:
                    00:a9:5a:a8:54:a3:8f:db:2b:fa:95:93:ba:56:56:
                    0d:a9:38:41:3d:fb:aa:59:48:d1:26:16:b0:6e:6e:
                    fe:92:b4:1c:09:a1:5e:34:c8:21:24:25:be:47:36:
                    b5:9d:47:84:0e:56:77:e4:5c:5a:7d:4b:d4:51:a7:
                    51:c8:82:f8:2d:be:8b:33:fc:9d:d6:23:24:0f:46:
                    a9:75:c9:52:e8:4e:7d:d6:ca:dd:61:06:a9:a1:7b:
                    7a:37:c6:bb:30:04:28:8f:2b:bc:5c:4a:8f:d2:e3:
                    5a:d3:67:b6:a5:7a:23:d5:dc:b3:62:28:60:b4:4a:
                    2c:4b:df:11:57:13:2e:2e:40:6b:21:97:91:d3:90:
                    da:d3:74:fb:5a:e4:d2:01:ff:f8:38:98:95:b8:f5:
                    60:a8:6a:a6:aa:b1:f3:ba:1b:29:d5:18:16:70:9d:
                    a3:fd:ad:5b:fb:74:3b:11:f7:f2:e5:d1:39:4c:09:
                    8a:5a:fc:04:88:20:ba:83:07:67:3f:91:46:ef:42:
                    31:13:27:c4:74:9b:4e:b9:e7:7f:7a:63:75:d7:94:
                    f0:7c:79:bc:f8:84:c3:89:a4:14:2b:32:a6:11:fd:
                    b5:32:e6:78:86:b5:41:d8:aa:cd:a9:75:3b:6c:a6:
                    f8:64:23:5f:25:ee:9b:6a:41:3c:d0:e5:4d:36:24:
                    7c:b5
                Exponent: 65537 (0x10001)
        X509v3 extensions:
            X509v3 Basic Constraints: 
                CA:FALSE
            X509v3 Subject Key Identifier: 
                78:1A:15:C3:43:BF:0C:8E:18:69:29:5E:6E:28:58:C6:E7:11:01:11
            X509v3 Authority Key Identifier: 
                keyid:45:7C:2B:06:CA:AE:DE:2B:85:8C:FD:B9:0B:9F:2F:51:8E:62:D6:63
                DirName:/CN=main_server.local
                serial:6D:F3:DC:79:F4:48:33:36:94:47:A8:97:79:68:E8:81:D8:2C:9D:B3
            X509v3 Extended Key Usage: 
                TLS Web Client Authentication
            X509v3 Key Usage: 
                Digital Signature
    Signature Algorithm: sha256WithRSAEncryption
    Signature Value:
        8d:ca:ad:72:b2:c3:93:e6:42:0c:2c:b7:01:57:72:90:f9:b3:
        f4:90:08:ba:c6:8a:fe:2a:9a:85:64:fd:23:c4:6d:66:95:3f:
        7e:55:28:72:2b:60:8d:34:6c:14:17:3c:3c:c5:5f:4f:c6:38:
        93:d6:ce:a0:35:d8:55:1f:d3:0f:93:c1:ef:4d:c8:d1:01:92:
        46:14:aa:79:8a:a9:6b:1d:df:6a:6d:4f:92:ba:69:00:e5:6d:
        f6:7c:74:a0:f7:6a:98:cf:fa:90:40:ec:bb:53:72:88:7c:67:
        9d:84:6b:ed:e8:61:07:c0:3e:67:af:48:bd:68:2f:d9:72:2a:
        b1:cf:8e:ca:e2:8e:d5:e4:90:96:1c:4c:dc:1d:84:75:9c:12:
        89:55:54:03:79:3a:d1:07:33:23:e1:29:b1:cb:98:e3:e8:69:
        ab:48:69:54:c7:f1:fd:dc:e9:4c:aa:7a:86:8c:a7:b4:c1:0a:
        40:6f:88:5b:f2:d0:8d:e4:c1:54:5a:3a:28:92:07:ac:33:fd:
        24:a1:59:ed:eb:cd:c4:d2:98:00:9a:f5:1c:cf:15:b5:7c:60:
        2a:ad:58:9a:ae:92:ce:03:2f:a6:ff:f3:3d:e9:a6:41:8c:0f:
        96:83:27:03:fd:94:b3:62:63:6d:bd:c9:99:34:6d:02:fc:fc:
        ab:37:8e:71
-----BEGIN CERTIFICATE-----
MIIDXjCCAkagAwIBAgIQAkHObu0AcupYjk9M/fC1+DANBgkqhkiG9w0BAQsFADAc
MRowGAYDVQQDDBFtYWluX3NlcnZlci5sb2NhbDAeFw0yNDA1MTgxNDQ4MjFaFw0y
NjA4MjExNDQ4MjFaMA8xDTALBgNVBAMMBGhvc3QwggEiMA0GCSqGSIb3DQEBAQUA
A4IBDwAwggEKAoIBAQCpWqhUo4/bK/qVk7pWVg2pOEE9+6pZSNEmFrBubv6StBwJ
oV40yCEkJb5HNrWdR4QOVnfkXFp9S9RRp1HIgvgtvosz/J3WIyQPRql1yVLoTn3W
yt1hBqmhe3o3xrswBCiPK7xcSo/S41rTZ7aleiPV3LNiKGC0SixL3xFXEy4uQGsh
l5HTkNrTdPta5NIB//g4mJW49WCoaqaqsfO6GynVGBZwnaP9rVv7dDsR9/Ll0TlM
CYpa/ASIILqDB2c/kUbvQjETJ8R0m0655396Y3XXlPB8ebz4hMOJpBQrMqYR/bUy
5niGtUHYqs2pdTtspvhkI18l7ptqQTzQ5U02JHy1AgMBAAGjgagwgaUwCQYDVR0T
BAIwADAdBgNVHQ4EFgQUeBoVw0O/DI4YaSlebihYxucRAREwVwYDVR0jBFAwToAU
RXwrBsqu3iuFjP25C58vUY5i1mOhIKQeMBwxGjAYBgNVBAMMEW1haW5fc2VydmVy
LmxvY2FsghRt89x59EgzNpRHqJd5aOiB2CydszATBgNVHSUEDDAKBggrBgEFBQcD
AjALBgNVHQ8EBAMCB4AwDQYJKoZIhvcNAQELBQADggEBAI3KrXKyw5PmQgwstwFX
cpD5s/SQCLrGiv4qmoVk/SPEbWaVP35VKHIrYI00bBQXPDzFX0/GOJPWzqA12FUf
0w+Twe9NyNEBkkYUqnmKqWsd32ptT5K6aQDlbfZ8dKD3apjP+pBA7LtTcoh8Z52E
a+3oYQfAPmevSL1oL9lyKrHPjsrijtXkkJYcTNwdhHWcEolVVAN5OtEHMyPhKbHL
mOPoaatIaVTH8f3c6UyqeoaMp7TBCkBviFvy0I3kwVRaOiiSB6wz/SShWe3rzcTS
mACa9RzPFbV8YCqtWJquks4DL6b/8z3ppkGMD5aDJwP9lLNiY229yZk0bQL8/Ks3
jnE=
-----END CERTIFICATE-----
