Certificate:
    Data:
        Version: 3 (0x2)
        Serial Number:
            67:ee:ee:6b:3d:2b:b4:28:d3:ab:14:f3:f5:5b:60:de
        Signature Algorithm: sha256WithRSAEncryption
        Issuer: CN=main_server.local
        Validity
            Not Before: May 18 14:47:57 2024 GMT
            Not After : Aug 21 14:47:57 2026 GMT
        Subject: CN=server
        Subject Public Key Info:
            Public Key Algorithm: rsaEncryption
                Public-Key: (2048 bit)
                Modulus:
                    00:ae:64:e4:85:97:be:91:5c:67:75:01:a2:30:da:
                    ce:58:84:9f:7c:5d:ae:67:cc:74:13:96:ec:eb:ff:
                    0d:c3:48:7b:55:7d:da:61:03:b7:f9:c8:cb:8f:76:
                    41:70:d0:5b:97:24:7f:83:9c:7b:1a:df:49:4f:a3:
                    aa:bc:bd:33:ec:3b:42:cd:8e:ef:de:2e:67:35:6f:
                    dd:19:28:98:66:e3:d4:90:08:83:a1:51:8a:36:5f:
                    69:5e:01:22:b7:a5:2d:3a:f7:27:7e:04:ca:1b:60:
                    3d:f9:fe:21:7c:74:39:f4:f9:20:3d:f7:45:bf:54:
                    69:e9:8c:d4:5d:9b:9f:92:b9:8a:78:18:f8:97:10:
                    c0:fe:31:c1:db:57:61:4e:22:3e:a0:e8:23:78:d1:
                    a8:a0:ae:2a:e4:29:60:39:9c:c4:09:27:e8:d5:23:
                    3f:77:02:d8:dc:dc:7f:6c:fb:a0:b8:67:25:b6:84:
                    1c:84:22:a1:18:3b:8d:27:a0:bc:be:72:b7:4a:0c:
                    5c:ad:98:2b:7d:a1:22:42:f9:e1:9f:ea:50:a5:80:
                    bc:76:5a:13:88:96:6a:53:79:26:d7:a9:b9:79:d0:
                    6e:13:f1:fc:7b:48:b3:05:cc:71:c7:d0:bb:35:70:
                    f6:b3:c9:03:e3:b6:39:53:2b:f0:fb:e2:5b:fc:57:
                    98:fb
                Exponent: 65537 (0x10001)
        X509v3 extensions:
            X509v3 Basic Constraints: 
                CA:FALSE
            X509v3 Subject Key Identifier: 
                63:2D:D9:C2:97:8E:71:73:80:5D:9B:45:AC:8C:8E:93:72:0D:30:D3
            X509v3 Authority Key Identifier: 
                keyid:45:7C:2B:06:CA:AE:DE:2B:85:8C:FD:B9:0B:9F:2F:51:8E:62:D6:63
                DirName:/CN=main_server.local
                serial:6D:F3:DC:79:F4:48:33:36:94:47:A8:97:79:68:E8:81:D8:2C:9D:B3
            X509v3 Extended Key Usage: 
                TLS Web Server Authentication
            X509v3 Key Usage: 
                Digital Signature, Key Encipherment
            X509v3 Subject Alternative Name: 
                DNS:server
    Signature Algorithm: sha256WithRSAEncryption
    Signature Value:
        19:d2:99:de:fb:3f:49:d5:b2:87:76:3e:21:45:2f:f0:cd:5b:
        d2:c8:33:cc:ed:50:ee:ec:be:a1:01:1d:bb:bd:4d:af:1e:61:
        25:36:87:3a:b0:26:76:28:7f:f6:16:ce:12:e7:c6:35:5e:0f:
        c9:d5:f5:22:28:cd:84:0d:6e:f8:fd:92:5f:1e:16:16:bc:97:
        66:54:fa:95:fe:1d:81:5c:fa:0e:52:f9:11:33:39:b8:f2:79:
        64:5f:76:37:01:43:62:58:3a:a8:f4:d1:84:0e:16:a2:31:86:
        06:4f:27:de:ad:93:1a:56:23:4f:43:c2:8e:65:d3:d9:6c:59:
        50:21:43:31:f3:b8:b7:53:1f:60:3b:86:d8:8d:e5:21:64:f8:
        99:e5:17:35:6b:47:f7:a7:f8:5d:95:0a:14:ff:3e:0c:7b:af:
        c0:00:5a:ae:68:b8:1d:5e:ed:5d:20:ca:ff:ef:93:29:c4:62:
        ff:5a:0c:72:2f:13:75:68:51:5a:91:b8:31:7b:95:bc:37:dc:
        ad:43:1b:bc:2b:91:60:08:03:0a:29:45:7a:4c:1a:c1:03:2b:
        89:43:0e:79:3d:ca:9a:8f:29:ae:1a:b9:bd:8c:22:81:3c:7c:
        43:51:04:11:0b:72:3f:5f:c8:4e:64:6c:2f:39:e5:30:91:f1:
        03:c1:d3:3a
-----BEGIN CERTIFICATE-----
MIIDczCCAlugAwIBAgIQZ+7uaz0rtCjTqxTz9Vtg3jANBgkqhkiG9w0BAQsFADAc
MRowGAYDVQQDDBFtYWluX3NlcnZlci5sb2NhbDAeFw0yNDA1MTgxNDQ3NTdaFw0y
NjA4MjExNDQ3NTdaMBExDzANBgNVBAMMBnNlcnZlcjCCASIwDQYJKoZIhvcNAQEB
BQADggEPADCCAQoCggEBAK5k5IWXvpFcZ3UBojDazliEn3xdrmfMdBOW7Ov/DcNI
e1V92mEDt/nIy492QXDQW5ckf4OcexrfSU+jqry9M+w7Qs2O794uZzVv3RkomGbj
1JAIg6FRijZfaV4BIrelLTr3J34EyhtgPfn+IXx0OfT5ID33Rb9UaemM1F2bn5K5
ingY+JcQwP4xwdtXYU4iPqDoI3jRqKCuKuQpYDmcxAkn6NUjP3cC2Nzcf2z7oLhn
JbaEHIQioRg7jSegvL5yt0oMXK2YK32hIkL54Z/qUKWAvHZaE4iWalN5JtepuXnQ
bhPx/HtIswXMccfQuzVw9rPJA+O2OVMr8PviW/xXmPsCAwEAAaOBuzCBuDAJBgNV
HRMEAjAAMB0GA1UdDgQWBBRjLdnCl45xc4Bdm0WsjI6Tcg0w0zBXBgNVHSMEUDBO
gBRFfCsGyq7eK4WM/bkLny9RjmLWY6EgpB4wHDEaMBgGA1UEAwwRbWFpbl9zZXJ2
ZXIubG9jYWyCFG3z3Hn0SDM2lEeol3lo6IHYLJ2zMBMGA1UdJQQMMAoGCCsGAQUF
BwMBMAsGA1UdDwQEAwIFoDARBgNVHREECjAIggZzZXJ2ZXIwDQYJKoZIhvcNAQEL
BQADggEBABnSmd77P0nVsod2PiFFL/DNW9LIM8ztUO7svqEBHbu9Ta8eYSU2hzqw
JnYof/YWzhLnxjVeD8nV9SIozYQNbvj9kl8eFha8l2ZU+pX+HYFc+g5S+REzObjy
eWRfdjcBQ2JYOqj00YQOFqIxhgZPJ96tkxpWI09Dwo5l09lsWVAhQzHzuLdTH2A7
htiN5SFk+JnlFzVrR/en+F2VChT/Pgx7r8AAWq5ouB1e7V0gyv/vkynEYv9aDHIv
E3VoUVqRuDF7lbw33K1DG7wrkWAIAwopRXpMGsEDK4lDDnk9ypqPKa4aub2MIoE8
fENRBBELcj9fyE5kbC855TCR8QPB0zo=
-----END CERTIFICATE-----
